(dp0
S'files'
p1
(lp2
S'/hdfs/FCC-hh/l1tGenJetMatching_QCD_15_3000_NoPU_Phase1_MuonVeto_NoCrossMatchLeadingGenJetToMuon_CrossMatchGenJetToMuon/l1tGenJetMatching_QCD_15_3000_NoPU_Phase1_3584672.0.root'
p3
aS'/hdfs/FCC-hh/l1tGenJetMatching_QCD_15_3000_NoPU_Phase1_MuonVeto_NoCrossMatchLeadingGenJetToMuon_CrossMatchGenJetToMuon/l1tGenJetMatching_QCD_15_3000_NoPU_Phase1_3584672.10.root'
p4
aS'/hdfs/FCC-hh/l1tGenJetMatching_QCD_15_3000_NoPU_Phase1_MuonVeto_NoCrossMatchLeadingGenJetToMuon_CrossMatchGenJetToMuon/l1tGenJetMatching_QCD_15_3000_NoPU_Phase1_3584672.11.root'
p5
aS'/hdfs/FCC-hh/l1tGenJetMatching_QCD_15_3000_NoPU_Phase1_MuonVeto_NoCrossMatchLeadingGenJetToMuon_CrossMatchGenJetToMuon/l1tGenJetMatching_QCD_15_3000_NoPU_Phase1_3584672.12.root'
p6
aS'/hdfs/FCC-hh/l1tGenJetMatching_QCD_15_3000_NoPU_Phase1_MuonVeto_NoCrossMatchLeadingGenJetToMuon_CrossMatchGenJetToMuon/l1tGenJetMatching_QCD_15_3000_NoPU_Phase1_3584672.13.root'
p7
aS'/hdfs/FCC-hh/l1tGenJetMatching_QCD_15_3000_NoPU_Phase1_MuonVeto_NoCrossMatchLeadingGenJetToMuon_CrossMatchGenJetToMuon/l1tGenJetMatching_QCD_15_3000_NoPU_Phase1_3584672.14.root'
p8
aS'/hdfs/FCC-hh/l1tGenJetMatching_QCD_15_3000_NoPU_Phase1_MuonVeto_NoCrossMatchLeadingGenJetToMuon_CrossMatchGenJetToMuon/l1tGenJetMatching_QCD_15_3000_NoPU_Phase1_3584672.15.root'
p9
aS'/hdfs/FCC-hh/l1tGenJetMatching_QCD_15_3000_NoPU_Phase1_MuonVeto_NoCrossMatchLeadingGenJetToMuon_CrossMatchGenJetToMuon/l1tGenJetMatching_QCD_15_3000_NoPU_Phase1_3584672.16.root'
p10
aS'/hdfs/FCC-hh/l1tGenJetMatching_QCD_15_3000_NoPU_Phase1_MuonVeto_NoCrossMatchLeadingGenJetToMuon_CrossMatchGenJetToMuon/l1tGenJetMatching_QCD_15_3000_NoPU_Phase1_3584672.17.root'
p11
aS'/hdfs/FCC-hh/l1tGenJetMatching_QCD_15_3000_NoPU_Phase1_MuonVeto_NoCrossMatchLeadingGenJetToMuon_CrossMatchGenJetToMuon/l1tGenJetMatching_QCD_15_3000_NoPU_Phase1_3584672.18.root'
p12
aS'/hdfs/FCC-hh/l1tGenJetMatching_QCD_15_3000_NoPU_Phase1_MuonVeto_NoCrossMatchLeadingGenJetToMuon_CrossMatchGenJetToMuon/l1tGenJetMatching_QCD_15_3000_NoPU_Phase1_3584672.19.root'
p13
aS'/hdfs/FCC-hh/l1tGenJetMatching_QCD_15_3000_NoPU_Phase1_MuonVeto_NoCrossMatchLeadingGenJetToMuon_CrossMatchGenJetToMuon/l1tGenJetMatching_QCD_15_3000_NoPU_Phase1_3584672.1.root'
p14
aS'/hdfs/FCC-hh/l1tGenJetMatching_QCD_15_3000_NoPU_Phase1_MuonVeto_NoCrossMatchLeadingGenJetToMuon_CrossMatchGenJetToMuon/l1tGenJetMatching_QCD_15_3000_NoPU_Phase1_3584672.2.root'
p15
aS'/hdfs/FCC-hh/l1tGenJetMatching_QCD_15_3000_NoPU_Phase1_MuonVeto_NoCrossMatchLeadingGenJetToMuon_CrossMatchGenJetToMuon/l1tGenJetMatching_QCD_15_3000_NoPU_Phase1_3584672.3.root'
p16
aS'/hdfs/FCC-hh/l1tGenJetMatching_QCD_15_3000_NoPU_Phase1_MuonVeto_NoCrossMatchLeadingGenJetToMuon_CrossMatchGenJetToMuon/l1tGenJetMatching_QCD_15_3000_NoPU_Phase1_3584672.4.root'
p17
aS'/hdfs/FCC-hh/l1tGenJetMatching_QCD_15_3000_NoPU_Phase1_MuonVeto_NoCrossMatchLeadingGenJetToMuon_CrossMatchGenJetToMuon/l1tGenJetMatching_QCD_15_3000_NoPU_Phase1_3584672.5.root'
p18
aS'/hdfs/FCC-hh/l1tGenJetMatching_QCD_15_3000_NoPU_Phase1_MuonVeto_NoCrossMatchLeadingGenJetToMuon_CrossMatchGenJetToMuon/l1tGenJetMatching_QCD_15_3000_NoPU_Phase1_3584672.6.root'
p19
aS'/hdfs/FCC-hh/l1tGenJetMatching_QCD_15_3000_NoPU_Phase1_MuonVeto_NoCrossMatchLeadingGenJetToMuon_CrossMatchGenJetToMuon/l1tGenJetMatching_QCD_15_3000_NoPU_Phase1_3584672.7.root'
p20
aS'/hdfs/FCC-hh/l1tGenJetMatching_QCD_15_3000_NoPU_Phase1_MuonVeto_NoCrossMatchLeadingGenJetToMuon_CrossMatchGenJetToMuon/l1tGenJetMatching_QCD_15_3000_NoPU_Phase1_3584672.8.root'
p21
aS'/hdfs/FCC-hh/l1tGenJetMatching_QCD_15_3000_NoPU_Phase1_MuonVeto_NoCrossMatchLeadingGenJetToMuon_CrossMatchGenJetToMuon/l1tGenJetMatching_QCD_15_3000_NoPU_Phase1_3584672.9.root'
p22
asS'name'
p23
S'cmsMatching_QCD_15_3000_leadingGenJet_leadingL1TMuon'
p24
s.