(dp0
S'files'
p1
(lp2
S'/hdfs/FCC-hh/l1tMuonGenMuonMatching_SingleMu_FlatPt_8to100_QualityCut_WQualityBranch/MatchL1TMuonWithGenLevelMuons_SingleMu.root'
p3
asS'name'
p4
S'l1tMuonGenMuonMatching_SingleMu_FlatPt_8to100_QualityCut_WQualityBranch'
p5
s.