(dp0
S'files'
p1
(lp2
S'/hdfs/FCC-hh/l1tGenJetMatching_SingleNeutrinoPU140_MuonQualityCut8/l1tGenJetMatching_SingleNeutrinoPU140_2726336.0.root'
p3
aS'/hdfs/FCC-hh/l1tGenJetMatching_SingleNeutrinoPU140_MuonQualityCut8/l1tGenJetMatching_SingleNeutrinoPU140_2726336.1.root'
p4
aS'/hdfs/FCC-hh/l1tGenJetMatching_SingleNeutrinoPU140_MuonQualityCut8/l1tGenJetMatching_SingleNeutrinoPU140_2726336.10.root'
p5
aS'/hdfs/FCC-hh/l1tGenJetMatching_SingleNeutrinoPU140_MuonQualityCut8/l1tGenJetMatching_SingleNeutrinoPU140_2726336.100.root'
p6
aS'/hdfs/FCC-hh/l1tGenJetMatching_SingleNeutrinoPU140_MuonQualityCut8/l1tGenJetMatching_SingleNeutrinoPU140_2726336.101.root'
p7
aS'/hdfs/FCC-hh/l1tGenJetMatching_SingleNeutrinoPU140_MuonQualityCut8/l1tGenJetMatching_SingleNeutrinoPU140_2726336.102.root'
p8
aS'/hdfs/FCC-hh/l1tGenJetMatching_SingleNeutrinoPU140_MuonQualityCut8/l1tGenJetMatching_SingleNeutrinoPU140_2726336.103.root'
p9
aS'/hdfs/FCC-hh/l1tGenJetMatching_SingleNeutrinoPU140_MuonQualityCut8/l1tGenJetMatching_SingleNeutrinoPU140_2726336.104.root'
p10
aS'/hdfs/FCC-hh/l1tGenJetMatching_SingleNeutrinoPU140_MuonQualityCut8/l1tGenJetMatching_SingleNeutrinoPU140_2726336.105.root'
p11
aS'/hdfs/FCC-hh/l1tGenJetMatching_SingleNeutrinoPU140_MuonQualityCut8/l1tGenJetMatching_SingleNeutrinoPU140_2726336.106.root'
p12
aS'/hdfs/FCC-hh/l1tGenJetMatching_SingleNeutrinoPU140_MuonQualityCut8/l1tGenJetMatching_SingleNeutrinoPU140_2726336.107.root'
p13
aS'/hdfs/FCC-hh/l1tGenJetMatching_SingleNeutrinoPU140_MuonQualityCut8/l1tGenJetMatching_SingleNeutrinoPU140_2726336.108.root'
p14
aS'/hdfs/FCC-hh/l1tGenJetMatching_SingleNeutrinoPU140_MuonQualityCut8/l1tGenJetMatching_SingleNeutrinoPU140_2726336.109.root'
p15
aS'/hdfs/FCC-hh/l1tGenJetMatching_SingleNeutrinoPU140_MuonQualityCut8/l1tGenJetMatching_SingleNeutrinoPU140_2726336.11.root'
p16
aS'/hdfs/FCC-hh/l1tGenJetMatching_SingleNeutrinoPU140_MuonQualityCut8/l1tGenJetMatching_SingleNeutrinoPU140_2726336.110.root'
p17
aS'/hdfs/FCC-hh/l1tGenJetMatching_SingleNeutrinoPU140_MuonQualityCut8/l1tGenJetMatching_SingleNeutrinoPU140_2726336.111.root'
p18
aS'/hdfs/FCC-hh/l1tGenJetMatching_SingleNeutrinoPU140_MuonQualityCut8/l1tGenJetMatching_SingleNeutrinoPU140_2726336.112.root'
p19
aS'/hdfs/FCC-hh/l1tGenJetMatching_SingleNeutrinoPU140_MuonQualityCut8/l1tGenJetMatching_SingleNeutrinoPU140_2726336.113.root'
p20
aS'/hdfs/FCC-hh/l1tGenJetMatching_SingleNeutrinoPU140_MuonQualityCut8/l1tGenJetMatching_SingleNeutrinoPU140_2726336.114.root'
p21
aS'/hdfs/FCC-hh/l1tGenJetMatching_SingleNeutrinoPU140_MuonQualityCut8/l1tGenJetMatching_SingleNeutrinoPU140_2726336.115.root'
p22
aS'/hdfs/FCC-hh/l1tGenJetMatching_SingleNeutrinoPU140_MuonQualityCut8/l1tGenJetMatching_SingleNeutrinoPU140_2726336.116.root'
p23
aS'/hdfs/FCC-hh/l1tGenJetMatching_SingleNeutrinoPU140_MuonQualityCut8/l1tGenJetMatching_SingleNeutrinoPU140_2726336.117.root'
p24
aS'/hdfs/FCC-hh/l1tGenJetMatching_SingleNeutrinoPU140_MuonQualityCut8/l1tGenJetMatching_SingleNeutrinoPU140_2726336.118.root'
p25
aS'/hdfs/FCC-hh/l1tGenJetMatching_SingleNeutrinoPU140_MuonQualityCut8/l1tGenJetMatching_SingleNeutrinoPU140_2726336.119.root'
p26
aS'/hdfs/FCC-hh/l1tGenJetMatching_SingleNeutrinoPU140_MuonQualityCut8/l1tGenJetMatching_SingleNeutrinoPU140_2726336.12.root'
p27
aS'/hdfs/FCC-hh/l1tGenJetMatching_SingleNeutrinoPU140_MuonQualityCut8/l1tGenJetMatching_SingleNeutrinoPU140_2726336.120.root'
p28
aS'/hdfs/FCC-hh/l1tGenJetMatching_SingleNeutrinoPU140_MuonQualityCut8/l1tGenJetMatching_SingleNeutrinoPU140_2726336.121.root'
p29
aS'/hdfs/FCC-hh/l1tGenJetMatching_SingleNeutrinoPU140_MuonQualityCut8/l1tGenJetMatching_SingleNeutrinoPU140_2726336.122.root'
p30
aS'/hdfs/FCC-hh/l1tGenJetMatching_SingleNeutrinoPU140_MuonQualityCut8/l1tGenJetMatching_SingleNeutrinoPU140_2726336.123.root'
p31
aS'/hdfs/FCC-hh/l1tGenJetMatching_SingleNeutrinoPU140_MuonQualityCut8/l1tGenJetMatching_SingleNeutrinoPU140_2726336.124.root'
p32
aS'/hdfs/FCC-hh/l1tGenJetMatching_SingleNeutrinoPU140_MuonQualityCut8/l1tGenJetMatching_SingleNeutrinoPU140_2726336.125.root'
p33
aS'/hdfs/FCC-hh/l1tGenJetMatching_SingleNeutrinoPU140_MuonQualityCut8/l1tGenJetMatching_SingleNeutrinoPU140_2726336.126.root'
p34
aS'/hdfs/FCC-hh/l1tGenJetMatching_SingleNeutrinoPU140_MuonQualityCut8/l1tGenJetMatching_SingleNeutrinoPU140_2726336.127.root'
p35
aS'/hdfs/FCC-hh/l1tGenJetMatching_SingleNeutrinoPU140_MuonQualityCut8/l1tGenJetMatching_SingleNeutrinoPU140_2726336.128.root'
p36
aS'/hdfs/FCC-hh/l1tGenJetMatching_SingleNeutrinoPU140_MuonQualityCut8/l1tGenJetMatching_SingleNeutrinoPU140_2726336.129.root'
p37
aS'/hdfs/FCC-hh/l1tGenJetMatching_SingleNeutrinoPU140_MuonQualityCut8/l1tGenJetMatching_SingleNeutrinoPU140_2726336.13.root'
p38
aS'/hdfs/FCC-hh/l1tGenJetMatching_SingleNeutrinoPU140_MuonQualityCut8/l1tGenJetMatching_SingleNeutrinoPU140_2726336.130.root'
p39
aS'/hdfs/FCC-hh/l1tGenJetMatching_SingleNeutrinoPU140_MuonQualityCut8/l1tGenJetMatching_SingleNeutrinoPU140_2726336.131.root'
p40
aS'/hdfs/FCC-hh/l1tGenJetMatching_SingleNeutrinoPU140_MuonQualityCut8/l1tGenJetMatching_SingleNeutrinoPU140_2726336.132.root'
p41
aS'/hdfs/FCC-hh/l1tGenJetMatching_SingleNeutrinoPU140_MuonQualityCut8/l1tGenJetMatching_SingleNeutrinoPU140_2726336.14.root'
p42
aS'/hdfs/FCC-hh/l1tGenJetMatching_SingleNeutrinoPU140_MuonQualityCut8/l1tGenJetMatching_SingleNeutrinoPU140_2726336.15.root'
p43
aS'/hdfs/FCC-hh/l1tGenJetMatching_SingleNeutrinoPU140_MuonQualityCut8/l1tGenJetMatching_SingleNeutrinoPU140_2726336.16.root'
p44
aS'/hdfs/FCC-hh/l1tGenJetMatching_SingleNeutrinoPU140_MuonQualityCut8/l1tGenJetMatching_SingleNeutrinoPU140_2726336.17.root'
p45
aS'/hdfs/FCC-hh/l1tGenJetMatching_SingleNeutrinoPU140_MuonQualityCut8/l1tGenJetMatching_SingleNeutrinoPU140_2726336.18.root'
p46
aS'/hdfs/FCC-hh/l1tGenJetMatching_SingleNeutrinoPU140_MuonQualityCut8/l1tGenJetMatching_SingleNeutrinoPU140_2726336.19.root'
p47
aS'/hdfs/FCC-hh/l1tGenJetMatching_SingleNeutrinoPU140_MuonQualityCut8/l1tGenJetMatching_SingleNeutrinoPU140_2726336.2.root'
p48
aS'/hdfs/FCC-hh/l1tGenJetMatching_SingleNeutrinoPU140_MuonQualityCut8/l1tGenJetMatching_SingleNeutrinoPU140_2726336.20.root'
p49
aS'/hdfs/FCC-hh/l1tGenJetMatching_SingleNeutrinoPU140_MuonQualityCut8/l1tGenJetMatching_SingleNeutrinoPU140_2726336.21.root'
p50
aS'/hdfs/FCC-hh/l1tGenJetMatching_SingleNeutrinoPU140_MuonQualityCut8/l1tGenJetMatching_SingleNeutrinoPU140_2726336.22.root'
p51
aS'/hdfs/FCC-hh/l1tGenJetMatching_SingleNeutrinoPU140_MuonQualityCut8/l1tGenJetMatching_SingleNeutrinoPU140_2726336.23.root'
p52
aS'/hdfs/FCC-hh/l1tGenJetMatching_SingleNeutrinoPU140_MuonQualityCut8/l1tGenJetMatching_SingleNeutrinoPU140_2726336.24.root'
p53
aS'/hdfs/FCC-hh/l1tGenJetMatching_SingleNeutrinoPU140_MuonQualityCut8/l1tGenJetMatching_SingleNeutrinoPU140_2726336.25.root'
p54
aS'/hdfs/FCC-hh/l1tGenJetMatching_SingleNeutrinoPU140_MuonQualityCut8/l1tGenJetMatching_SingleNeutrinoPU140_2726336.26.root'
p55
aS'/hdfs/FCC-hh/l1tGenJetMatching_SingleNeutrinoPU140_MuonQualityCut8/l1tGenJetMatching_SingleNeutrinoPU140_2726336.27.root'
p56
aS'/hdfs/FCC-hh/l1tGenJetMatching_SingleNeutrinoPU140_MuonQualityCut8/l1tGenJetMatching_SingleNeutrinoPU140_2726336.28.root'
p57
aS'/hdfs/FCC-hh/l1tGenJetMatching_SingleNeutrinoPU140_MuonQualityCut8/l1tGenJetMatching_SingleNeutrinoPU140_2726336.29.root'
p58
aS'/hdfs/FCC-hh/l1tGenJetMatching_SingleNeutrinoPU140_MuonQualityCut8/l1tGenJetMatching_SingleNeutrinoPU140_2726336.3.root'
p59
aS'/hdfs/FCC-hh/l1tGenJetMatching_SingleNeutrinoPU140_MuonQualityCut8/l1tGenJetMatching_SingleNeutrinoPU140_2726336.30.root'
p60
aS'/hdfs/FCC-hh/l1tGenJetMatching_SingleNeutrinoPU140_MuonQualityCut8/l1tGenJetMatching_SingleNeutrinoPU140_2726336.31.root'
p61
aS'/hdfs/FCC-hh/l1tGenJetMatching_SingleNeutrinoPU140_MuonQualityCut8/l1tGenJetMatching_SingleNeutrinoPU140_2726336.32.root'
p62
aS'/hdfs/FCC-hh/l1tGenJetMatching_SingleNeutrinoPU140_MuonQualityCut8/l1tGenJetMatching_SingleNeutrinoPU140_2726336.33.root'
p63
aS'/hdfs/FCC-hh/l1tGenJetMatching_SingleNeutrinoPU140_MuonQualityCut8/l1tGenJetMatching_SingleNeutrinoPU140_2726336.34.root'
p64
aS'/hdfs/FCC-hh/l1tGenJetMatching_SingleNeutrinoPU140_MuonQualityCut8/l1tGenJetMatching_SingleNeutrinoPU140_2726336.35.root'
p65
aS'/hdfs/FCC-hh/l1tGenJetMatching_SingleNeutrinoPU140_MuonQualityCut8/l1tGenJetMatching_SingleNeutrinoPU140_2726336.36.root'
p66
aS'/hdfs/FCC-hh/l1tGenJetMatching_SingleNeutrinoPU140_MuonQualityCut8/l1tGenJetMatching_SingleNeutrinoPU140_2726336.37.root'
p67
aS'/hdfs/FCC-hh/l1tGenJetMatching_SingleNeutrinoPU140_MuonQualityCut8/l1tGenJetMatching_SingleNeutrinoPU140_2726336.38.root'
p68
aS'/hdfs/FCC-hh/l1tGenJetMatching_SingleNeutrinoPU140_MuonQualityCut8/l1tGenJetMatching_SingleNeutrinoPU140_2726336.39.root'
p69
aS'/hdfs/FCC-hh/l1tGenJetMatching_SingleNeutrinoPU140_MuonQualityCut8/l1tGenJetMatching_SingleNeutrinoPU140_2726336.4.root'
p70
aS'/hdfs/FCC-hh/l1tGenJetMatching_SingleNeutrinoPU140_MuonQualityCut8/l1tGenJetMatching_SingleNeutrinoPU140_2726336.40.root'
p71
aS'/hdfs/FCC-hh/l1tGenJetMatching_SingleNeutrinoPU140_MuonQualityCut8/l1tGenJetMatching_SingleNeutrinoPU140_2726336.41.root'
p72
aS'/hdfs/FCC-hh/l1tGenJetMatching_SingleNeutrinoPU140_MuonQualityCut8/l1tGenJetMatching_SingleNeutrinoPU140_2726336.42.root'
p73
aS'/hdfs/FCC-hh/l1tGenJetMatching_SingleNeutrinoPU140_MuonQualityCut8/l1tGenJetMatching_SingleNeutrinoPU140_2726336.43.root'
p74
aS'/hdfs/FCC-hh/l1tGenJetMatching_SingleNeutrinoPU140_MuonQualityCut8/l1tGenJetMatching_SingleNeutrinoPU140_2726336.44.root'
p75
aS'/hdfs/FCC-hh/l1tGenJetMatching_SingleNeutrinoPU140_MuonQualityCut8/l1tGenJetMatching_SingleNeutrinoPU140_2726336.45.root'
p76
aS'/hdfs/FCC-hh/l1tGenJetMatching_SingleNeutrinoPU140_MuonQualityCut8/l1tGenJetMatching_SingleNeutrinoPU140_2726336.46.root'
p77
aS'/hdfs/FCC-hh/l1tGenJetMatching_SingleNeutrinoPU140_MuonQualityCut8/l1tGenJetMatching_SingleNeutrinoPU140_2726336.47.root'
p78
aS'/hdfs/FCC-hh/l1tGenJetMatching_SingleNeutrinoPU140_MuonQualityCut8/l1tGenJetMatching_SingleNeutrinoPU140_2726336.48.root'
p79
aS'/hdfs/FCC-hh/l1tGenJetMatching_SingleNeutrinoPU140_MuonQualityCut8/l1tGenJetMatching_SingleNeutrinoPU140_2726336.49.root'
p80
aS'/hdfs/FCC-hh/l1tGenJetMatching_SingleNeutrinoPU140_MuonQualityCut8/l1tGenJetMatching_SingleNeutrinoPU140_2726336.5.root'
p81
aS'/hdfs/FCC-hh/l1tGenJetMatching_SingleNeutrinoPU140_MuonQualityCut8/l1tGenJetMatching_SingleNeutrinoPU140_2726336.50.root'
p82
aS'/hdfs/FCC-hh/l1tGenJetMatching_SingleNeutrinoPU140_MuonQualityCut8/l1tGenJetMatching_SingleNeutrinoPU140_2726336.51.root'
p83
aS'/hdfs/FCC-hh/l1tGenJetMatching_SingleNeutrinoPU140_MuonQualityCut8/l1tGenJetMatching_SingleNeutrinoPU140_2726336.52.root'
p84
aS'/hdfs/FCC-hh/l1tGenJetMatching_SingleNeutrinoPU140_MuonQualityCut8/l1tGenJetMatching_SingleNeutrinoPU140_2726336.53.root'
p85
aS'/hdfs/FCC-hh/l1tGenJetMatching_SingleNeutrinoPU140_MuonQualityCut8/l1tGenJetMatching_SingleNeutrinoPU140_2726336.54.root'
p86
aS'/hdfs/FCC-hh/l1tGenJetMatching_SingleNeutrinoPU140_MuonQualityCut8/l1tGenJetMatching_SingleNeutrinoPU140_2726336.55.root'
p87
aS'/hdfs/FCC-hh/l1tGenJetMatching_SingleNeutrinoPU140_MuonQualityCut8/l1tGenJetMatching_SingleNeutrinoPU140_2726336.56.root'
p88
aS'/hdfs/FCC-hh/l1tGenJetMatching_SingleNeutrinoPU140_MuonQualityCut8/l1tGenJetMatching_SingleNeutrinoPU140_2726336.57.root'
p89
aS'/hdfs/FCC-hh/l1tGenJetMatching_SingleNeutrinoPU140_MuonQualityCut8/l1tGenJetMatching_SingleNeutrinoPU140_2726336.58.root'
p90
aS'/hdfs/FCC-hh/l1tGenJetMatching_SingleNeutrinoPU140_MuonQualityCut8/l1tGenJetMatching_SingleNeutrinoPU140_2726336.59.root'
p91
aS'/hdfs/FCC-hh/l1tGenJetMatching_SingleNeutrinoPU140_MuonQualityCut8/l1tGenJetMatching_SingleNeutrinoPU140_2726336.6.root'
p92
aS'/hdfs/FCC-hh/l1tGenJetMatching_SingleNeutrinoPU140_MuonQualityCut8/l1tGenJetMatching_SingleNeutrinoPU140_2726336.60.root'
p93
aS'/hdfs/FCC-hh/l1tGenJetMatching_SingleNeutrinoPU140_MuonQualityCut8/l1tGenJetMatching_SingleNeutrinoPU140_2726336.61.root'
p94
aS'/hdfs/FCC-hh/l1tGenJetMatching_SingleNeutrinoPU140_MuonQualityCut8/l1tGenJetMatching_SingleNeutrinoPU140_2726336.62.root'
p95
aS'/hdfs/FCC-hh/l1tGenJetMatching_SingleNeutrinoPU140_MuonQualityCut8/l1tGenJetMatching_SingleNeutrinoPU140_2726336.63.root'
p96
aS'/hdfs/FCC-hh/l1tGenJetMatching_SingleNeutrinoPU140_MuonQualityCut8/l1tGenJetMatching_SingleNeutrinoPU140_2726336.64.root'
p97
aS'/hdfs/FCC-hh/l1tGenJetMatching_SingleNeutrinoPU140_MuonQualityCut8/l1tGenJetMatching_SingleNeutrinoPU140_2726336.65.root'
p98
aS'/hdfs/FCC-hh/l1tGenJetMatching_SingleNeutrinoPU140_MuonQualityCut8/l1tGenJetMatching_SingleNeutrinoPU140_2726336.66.root'
p99
aS'/hdfs/FCC-hh/l1tGenJetMatching_SingleNeutrinoPU140_MuonQualityCut8/l1tGenJetMatching_SingleNeutrinoPU140_2726336.67.root'
p100
aS'/hdfs/FCC-hh/l1tGenJetMatching_SingleNeutrinoPU140_MuonQualityCut8/l1tGenJetMatching_SingleNeutrinoPU140_2726336.68.root'
p101
aS'/hdfs/FCC-hh/l1tGenJetMatching_SingleNeutrinoPU140_MuonQualityCut8/l1tGenJetMatching_SingleNeutrinoPU140_2726336.69.root'
p102
aS'/hdfs/FCC-hh/l1tGenJetMatching_SingleNeutrinoPU140_MuonQualityCut8/l1tGenJetMatching_SingleNeutrinoPU140_2726336.7.root'
p103
aS'/hdfs/FCC-hh/l1tGenJetMatching_SingleNeutrinoPU140_MuonQualityCut8/l1tGenJetMatching_SingleNeutrinoPU140_2726336.70.root'
p104
aS'/hdfs/FCC-hh/l1tGenJetMatching_SingleNeutrinoPU140_MuonQualityCut8/l1tGenJetMatching_SingleNeutrinoPU140_2726336.71.root'
p105
aS'/hdfs/FCC-hh/l1tGenJetMatching_SingleNeutrinoPU140_MuonQualityCut8/l1tGenJetMatching_SingleNeutrinoPU140_2726336.72.root'
p106
aS'/hdfs/FCC-hh/l1tGenJetMatching_SingleNeutrinoPU140_MuonQualityCut8/l1tGenJetMatching_SingleNeutrinoPU140_2726336.73.root'
p107
aS'/hdfs/FCC-hh/l1tGenJetMatching_SingleNeutrinoPU140_MuonQualityCut8/l1tGenJetMatching_SingleNeutrinoPU140_2726336.74.root'
p108
aS'/hdfs/FCC-hh/l1tGenJetMatching_SingleNeutrinoPU140_MuonQualityCut8/l1tGenJetMatching_SingleNeutrinoPU140_2726336.75.root'
p109
aS'/hdfs/FCC-hh/l1tGenJetMatching_SingleNeutrinoPU140_MuonQualityCut8/l1tGenJetMatching_SingleNeutrinoPU140_2726336.76.root'
p110
aS'/hdfs/FCC-hh/l1tGenJetMatching_SingleNeutrinoPU140_MuonQualityCut8/l1tGenJetMatching_SingleNeutrinoPU140_2726336.77.root'
p111
aS'/hdfs/FCC-hh/l1tGenJetMatching_SingleNeutrinoPU140_MuonQualityCut8/l1tGenJetMatching_SingleNeutrinoPU140_2726336.78.root'
p112
aS'/hdfs/FCC-hh/l1tGenJetMatching_SingleNeutrinoPU140_MuonQualityCut8/l1tGenJetMatching_SingleNeutrinoPU140_2726336.79.root'
p113
aS'/hdfs/FCC-hh/l1tGenJetMatching_SingleNeutrinoPU140_MuonQualityCut8/l1tGenJetMatching_SingleNeutrinoPU140_2726336.8.root'
p114
aS'/hdfs/FCC-hh/l1tGenJetMatching_SingleNeutrinoPU140_MuonQualityCut8/l1tGenJetMatching_SingleNeutrinoPU140_2726336.80.root'
p115
aS'/hdfs/FCC-hh/l1tGenJetMatching_SingleNeutrinoPU140_MuonQualityCut8/l1tGenJetMatching_SingleNeutrinoPU140_2726336.81.root'
p116
aS'/hdfs/FCC-hh/l1tGenJetMatching_SingleNeutrinoPU140_MuonQualityCut8/l1tGenJetMatching_SingleNeutrinoPU140_2726336.82.root'
p117
aS'/hdfs/FCC-hh/l1tGenJetMatching_SingleNeutrinoPU140_MuonQualityCut8/l1tGenJetMatching_SingleNeutrinoPU140_2726336.83.root'
p118
aS'/hdfs/FCC-hh/l1tGenJetMatching_SingleNeutrinoPU140_MuonQualityCut8/l1tGenJetMatching_SingleNeutrinoPU140_2726336.84.root'
p119
aS'/hdfs/FCC-hh/l1tGenJetMatching_SingleNeutrinoPU140_MuonQualityCut8/l1tGenJetMatching_SingleNeutrinoPU140_2726336.85.root'
p120
aS'/hdfs/FCC-hh/l1tGenJetMatching_SingleNeutrinoPU140_MuonQualityCut8/l1tGenJetMatching_SingleNeutrinoPU140_2726336.86.root'
p121
aS'/hdfs/FCC-hh/l1tGenJetMatching_SingleNeutrinoPU140_MuonQualityCut8/l1tGenJetMatching_SingleNeutrinoPU140_2726336.87.root'
p122
aS'/hdfs/FCC-hh/l1tGenJetMatching_SingleNeutrinoPU140_MuonQualityCut8/l1tGenJetMatching_SingleNeutrinoPU140_2726336.88.root'
p123
aS'/hdfs/FCC-hh/l1tGenJetMatching_SingleNeutrinoPU140_MuonQualityCut8/l1tGenJetMatching_SingleNeutrinoPU140_2726336.89.root'
p124
aS'/hdfs/FCC-hh/l1tGenJetMatching_SingleNeutrinoPU140_MuonQualityCut8/l1tGenJetMatching_SingleNeutrinoPU140_2726336.9.root'
p125
aS'/hdfs/FCC-hh/l1tGenJetMatching_SingleNeutrinoPU140_MuonQualityCut8/l1tGenJetMatching_SingleNeutrinoPU140_2726336.90.root'
p126
aS'/hdfs/FCC-hh/l1tGenJetMatching_SingleNeutrinoPU140_MuonQualityCut8/l1tGenJetMatching_SingleNeutrinoPU140_2726336.91.root'
p127
aS'/hdfs/FCC-hh/l1tGenJetMatching_SingleNeutrinoPU140_MuonQualityCut8/l1tGenJetMatching_SingleNeutrinoPU140_2726336.92.root'
p128
aS'/hdfs/FCC-hh/l1tGenJetMatching_SingleNeutrinoPU140_MuonQualityCut8/l1tGenJetMatching_SingleNeutrinoPU140_2726336.93.root'
p129
aS'/hdfs/FCC-hh/l1tGenJetMatching_SingleNeutrinoPU140_MuonQualityCut8/l1tGenJetMatching_SingleNeutrinoPU140_2726336.94.root'
p130
aS'/hdfs/FCC-hh/l1tGenJetMatching_SingleNeutrinoPU140_MuonQualityCut8/l1tGenJetMatching_SingleNeutrinoPU140_2726336.95.root'
p131
aS'/hdfs/FCC-hh/l1tGenJetMatching_SingleNeutrinoPU140_MuonQualityCut8/l1tGenJetMatching_SingleNeutrinoPU140_2726336.96.root'
p132
aS'/hdfs/FCC-hh/l1tGenJetMatching_SingleNeutrinoPU140_MuonQualityCut8/l1tGenJetMatching_SingleNeutrinoPU140_2726336.97.root'
p133
aS'/hdfs/FCC-hh/l1tGenJetMatching_SingleNeutrinoPU140_MuonQualityCut8/l1tGenJetMatching_SingleNeutrinoPU140_2726336.98.root'
p134
aS'/hdfs/FCC-hh/l1tGenJetMatching_SingleNeutrinoPU140_MuonQualityCut8/l1tGenJetMatching_SingleNeutrinoPU140_2726336.99.root'
p135
asS'name'
p136
S'cmsMatching_SingleNeutrinoPU140_LeadingL1TMuon_QualityCut8'
p137
s.